target datalayout = "e-m:e-p270:32:32-p271:32:32-p272:64:64-i64:64-i128:128-f80:128-n8:16:32:64-S128"
target triple = "x86_64-pc-linux-gnu"

@.str.17 = private unnamed_addr constant [25 x i8] c"../openssl/test/bntest.c\00", align 1
@ctx = internal global ptr null, align 8
@.str.63 = private unnamed_addr constant [13 x i8] c"a = BN_new()\00", align 1
@.str.64 = private unnamed_addr constant [13 x i8] c"b = BN_new()\00", align 1
@.str.69 = private unnamed_addr constant [2 x i8] c"0\00", align 1
@.str.123 = private unnamed_addr constant [2 x i8] c"1\00", align 1
@.str.561 = private unnamed_addr constant [26 x i8] c"BN_are_coprime(a, b, ctx)\00", align 1
@.str.562 = private unnamed_addr constant [19 x i8] c"BN_set_word(a, 66)\00", align 1
@.str.563 = private unnamed_addr constant [19 x i8] c"BN_set_word(b, 99)\00", align 1
@.str.564 = private unnamed_addr constant [26 x i8] c"BN_are_coprime(b, a, ctx)\00", align 1
@.str.565 = private unnamed_addr constant [19 x i8] c"BN_set_word(a, 67)\00", align 1

; Function Attrs: nounwind uwtable
define internal i32 @test_coprime() #0 {
  %1 = alloca ptr, align 8
  %2 = alloca ptr, align 8
  %3 = alloca i32, align 4
  call void @llvm.lifetime.start.p0(i64 8, ptr %1) #7
  store ptr null, ptr %1, align 8, !tbaa !13
  call void @llvm.lifetime.start.p0(i64 8, ptr %2) #7
  store ptr null, ptr %2, align 8, !tbaa !13
  call void @llvm.lifetime.start.p0(i64 4, ptr %3) #7
  store i32 0, ptr %3, align 4, !tbaa !4
  %4 = call ptr @BN_new()
  store ptr %4, ptr %1, align 8, !tbaa !13
  %5 = call i32 @test_ptr(ptr noundef @.str.17, i32 noundef 2807, ptr noundef @.str.63, ptr noundef %4)
  %6 = icmp ne i32 %5, 0
  br i1 %6, label %7, label %60

7:                                                ; preds = %0
  %8 = call ptr @BN_new()
  store ptr %8, ptr %2, align 8, !tbaa !13
  %9 = call i32 @test_ptr(ptr noundef @.str.17, i32 noundef 2808, ptr noundef @.str.64, ptr noundef %8)
  %10 = icmp ne i32 %9, 0
  br i1 %10, label %11, label %60

11:                                               ; preds = %7
  %12 = load ptr, ptr %1, align 8, !tbaa !13
  %13 = call i32 @BN_set_word(ptr noundef %12, i64 noundef 66)
  %14 = icmp ne i32 %13, 0
  %15 = zext i1 %14 to i32
  %16 = call i32 @test_true(ptr noundef @.str.17, i32 noundef 2809, ptr noundef @.str.562, i32 noundef %15)
  %17 = icmp ne i32 %16, 0
  br i1 %17, label %18, label %60

18:                                               ; preds = %11
  %19 = load ptr, ptr %2, align 8, !tbaa !13
  %20 = call i32 @BN_set_word(ptr noundef %19, i64 noundef 99)
  %21 = icmp ne i32 %20, 0
  %22 = zext i1 %21 to i32
  %23 = call i32 @test_true(ptr noundef @.str.17, i32 noundef 2810, ptr noundef @.str.563, i32 noundef %22)
  %24 = icmp ne i32 %23, 0
  br i1 %24, label %25, label %60

25:                                               ; preds = %18
  %26 = load ptr, ptr %1, align 8, !tbaa !13
  %27 = load ptr, ptr %2, align 8, !tbaa !13
  %28 = load ptr, ptr @ctx, align 8, !tbaa !10
  %29 = call i32 @BN_are_coprime(ptr noundef %26, ptr noundef %27, ptr noundef %28)
  %30 = call i32 @test_int_eq(ptr noundef @.str.17, i32 noundef 2811, ptr noundef @.str.561, ptr noundef @.str.69, i32 noundef %29, i32 noundef 0)
  %31 = icmp ne i32 %30, 0
  br i1 %31, label %32, label %60

32:                                               ; preds = %25
  %33 = load ptr, ptr %2, align 8, !tbaa !13
  %34 = load ptr, ptr %1, align 8, !tbaa !13
  %35 = load ptr, ptr @ctx, align 8, !tbaa !10
  %36 = call i32 @BN_are_coprime(ptr noundef %33, ptr noundef %34, ptr noundef %35)
  %37 = call i32 @test_int_eq(ptr noundef @.str.17, i32 noundef 2812, ptr noundef @.str.564, ptr noundef @.str.69, i32 noundef %36, i32 noundef 0)
  %38 = icmp ne i32 %37, 0
  br i1 %38, label %39, label %60

39:                                               ; preds = %32
  %40 = load ptr, ptr %1, align 8, !tbaa !13
  %41 = call i32 @BN_set_word(ptr noundef %40, i64 noundef 67)
  %42 = icmp ne i32 %41, 0
  %43 = zext i1 %42 to i32
  %44 = call i32 @test_true(ptr noundef @.str.17, i32 noundef 2813, ptr noundef @.str.565, i32 noundef %43)
  %45 = icmp ne i32 %44, 0
  br i1 %45, label %46, label %60

46:                                               ; preds = %39
  %47 = load ptr, ptr %1, align 8, !tbaa !13
  %48 = load ptr, ptr %2, align 8, !tbaa !13
  %49 = load ptr, ptr @ctx, align 8, !tbaa !10
  %50 = call i32 @BN_are_coprime(ptr noundef %47, ptr noundef %48, ptr noundef %49)
  %51 = call i32 @test_int_eq(ptr noundef @.str.17, i32 noundef 2814, ptr noundef @.str.561, ptr noundef @.str.123, i32 noundef %50, i32 noundef 1)
  %52 = icmp ne i32 %51, 0
  br i1 %52, label %53, label %60

53:                                               ; preds = %46
  %54 = load ptr, ptr %2, align 8, !tbaa !13
  %55 = load ptr, ptr %1, align 8, !tbaa !13
  %56 = load ptr, ptr @ctx, align 8, !tbaa !10
  %57 = call i32 @BN_are_coprime(ptr noundef %54, ptr noundef %55, ptr noundef %56)
  %58 = call i32 @test_int_eq(ptr noundef @.str.17, i32 noundef 2815, ptr noundef @.str.564, ptr noundef @.str.123, i32 noundef %57, i32 noundef 1)
  %59 = icmp ne i32 %58, 0
  br label %60

60:                                               ; preds = %53, %46, %39, %32, %25, %18, %11, %7, %0
  %61 = phi i1 [ false, %46 ], [ false, %39 ], [ false, %32 ], [ false, %25 ], [ false, %18 ], [ false, %11 ], [ false, %7 ], [ false, %0 ], [ %59, %53 ]
  %62 = zext i1 %61 to i32
  store i32 %62, ptr %3, align 4, !tbaa !4
  %63 = load ptr, ptr %1, align 8, !tbaa !13
  call void @BN_free(ptr noundef %63)
  %64 = load ptr, ptr %2, align 8, !tbaa !13
  call void @BN_free(ptr noundef %64)
  %65 = load i32, ptr %3, align 4, !tbaa !4
  call void @llvm.lifetime.end.p0(i64 4, ptr %3) #7
  call void @llvm.lifetime.end.p0(i64 8, ptr %2) #7
  call void @llvm.lifetime.end.p0(i64 8, ptr %1) #7
  ret i32 %65
}