; Function Attrs: nounwind uwtable
define internal range(i32 0, 2) i32 @test_coprime() #1 {
  %1 = tail call ptr @BN_new() #8
  %2 = tail call i32 @test_ptr(ptr noundef nonnull @.str.17, i32 noundef 2807, ptr noundef nonnull @.str.63, ptr noundef %1) #8
  %.not = icmp eq i32 %2, 0
  br i1 %.not, label %39, label %3

3:                                                ; preds = %0
  %4 = tail call ptr @BN_new() #8
  %5 = tail call i32 @test_ptr(ptr noundef nonnull @.str.17, i32 noundef 2808, ptr noundef nonnull @.str.64, ptr noundef %4) #8
  %.not13 = icmp eq i32 %5, 0
  br i1 %.not13, label %39, label %6

6:                                                ; preds = %3
  %7 = tail call i32 @BN_set_word(ptr noundef %1, i64 noundef 66) #8
  %8 = icmp ne i32 %7, 0
  %9 = zext i1 %8 to i32
  %10 = tail call i32 @test_true(ptr noundef nonnull @.str.17, i32 noundef 2809, ptr noundef nonnull @.str.562, i32 noundef %9) #8
  %.not14 = icmp eq i32 %10, 0
  br i1 %.not14, label %39, label %11

11:                                               ; preds = %6
  %12 = tail call i32 @BN_set_word(ptr noundef %4, i64 noundef 99) #8
  %13 = icmp ne i32 %12, 0
  %14 = zext i1 %13 to i32
  %15 = tail call i32 @test_true(ptr noundef nonnull @.str.17, i32 noundef 2810, ptr noundef nonnull @.str.563, i32 noundef %14) #8
  %.not15 = icmp eq i32 %15, 0
  br i1 %.not15, label %39, label %16

16:                                               ; preds = %11
  %17 = load ptr, ptr @ctx, align 8, !tbaa !6
  %18 = tail call i32 @BN_are_coprime(ptr noundef %1, ptr noundef %4, ptr noundef %17) #8
  %19 = tail call i32 @test_int_eq(ptr noundef nonnull @.str.17, i32 noundef 2811, ptr noundef nonnull @.str.561, ptr noundef nonnull @.str.69, i32 noundef %18, i32 noundef 0) #8
  %.not16 = icmp eq i32 %19, 0
  br i1 %.not16, label %39, label %20

20:                                               ; preds = %16
  %21 = load ptr, ptr @ctx, align 8, !tbaa !6
  %22 = tail call i32 @BN_are_coprime(ptr noundef %4, ptr noundef %1, ptr noundef %21) #8
  %23 = tail call i32 @test_int_eq(ptr noundef nonnull @.str.17, i32 noundef 2812, ptr noundef nonnull @.str.564, ptr noundef nonnull @.str.69, i32 noundef %22, i32 noundef 0) #8
  %.not17 = icmp eq i32 %23, 0
  br i1 %.not17, label %39, label %24

24:                                               ; preds = %20
  %25 = tail call i32 @BN_set_word(ptr noundef %1, i64 noundef 67) #8
  %26 = icmp ne i32 %25, 0
  %27 = zext i1 %26 to i32
  %28 = tail call i32 @test_true(ptr noundef nonnull @.str.17, i32 noundef 2813, ptr noundef nonnull @.str.565, i32 noundef %27) #8
  %.not18 = icmp eq i32 %28, 0
  br i1 %.not18, label %39, label %29

29:                                               ; preds = %24
  %30 = load ptr, ptr @ctx, align 8, !tbaa !6
  %31 = tail call i32 @BN_are_coprime(ptr noundef %1, ptr noundef %4, ptr noundef %30) #8
  %32 = tail call i32 @test_int_eq(ptr noundef nonnull @.str.17, i32 noundef 2814, ptr noundef nonnull @.str.561, ptr noundef nonnull @.str.123, i32 noundef %31, i32 noundef 1) #8
  %.not19 = icmp eq i32 %32, 0
  br i1 %.not19, label %39, label %33

33:                                               ; preds = %29
  %34 = load ptr, ptr @ctx, align 8, !tbaa !6
  %35 = tail call i32 @BN_are_coprime(ptr noundef %4, ptr noundef %1, ptr noundef %34) #8
  %36 = tail call i32 @test_int_eq(ptr noundef nonnull @.str.17, i32 noundef 2815, ptr noundef nonnull @.str.564, ptr noundef nonnull @.str.123, i32 noundef %35, i32 noundef 1) #8
  %37 = icmp ne i32 %36, 0
  %38 = zext i1 %37 to i32
  br label %39

39:                                               ; preds = %33, %29, %24, %20, %16, %11, %6, %3, %0
  %.0 = phi ptr [ %4, %33 ], [ %4, %29 ], [ %4, %24 ], [ %4, %20 ], [ %4, %16 ], [ %4, %11 ], [ %4, %6 ], [ %4, %3 ], [ null, %0 ]
  %40 = phi i32 [ %38, %33 ], [ 0, %29 ], [ 0, %24 ], [ 0, %20 ], [ 0, %16 ], [ 0, %11 ], [ 0, %6 ], [ 0, %3 ], [ 0, %0 ]
  tail call void @BN_free(ptr noundef %1) #8
  tail call void @BN_free(ptr noundef %.0) #8
  ret i32 %40
}